(dp0
S'Canada'
p1
S'CAN'
p2
sS'Turkmenistan'
p3
S'TKM'
p4
sS'Republic of Croatia'
p5
S'HRV'
p6
sS'Saint Pierre and Miquelon'
p7
S'SPM'
p8
sS'Ethiopia'
p9
S'ETH'
p10
sS'Swaziland'
p11
S'SWZ'
p12
sS'Cameroon'
p13
S'CMR'
p14
sS'Burkina Faso'
p15
S'BFA'
p16
sS'Northern Mariana Islands'
p17
S'MNP'
p18
sS'Bosnia and Herzegovina'
p19
S'BIH'
p20
sS'Dominica'
p21
S'DMA'
p22
sS'Liberia'
p23
S'LBR'
p24
sS'Maldives'
p25
S'MDV'
p26
sS'Tanzania'
p27
S'TZA'
p28
sS'Seychelles'
p29
S'SYC'
p30
sS'Monaco'
p31
S'MCO'
p32
sS'Jersey'
p33
S'JEY'
p34
sS'Congo, Republic of the'
p35
S'COG'
p36
sS'Tajikistan'
p37
S'TJK'
p38
sS'Turkey'
p39
S'TUR'
p40
sS'Afghanistan'
p41
S'AFG'
p42
sS'France'
p43
S'FRA'
p44
sS'Slovakia'
p45
S'SVK'
p46
sS'Vanuatu'
p47
S'VUT'
p48
sS'Norway'
p49
S'NOR'
p50
sS'Malawi'
p51
S'MWI'
p52
sS'Montenegro'
p53
S'MNE'
p54
sS'Virgin Islands'
p55
S'VGB'
p56
sS'Micronesia, Federated States of'
p57
S'FSM'
p58
sS'Timor-Leste'
p59
S'TLS'
p60
sS'Dominican Republic'
p61
S'DOM'
p62
sS'Bahrain'
p63
S'BHR'
p64
sS'The Netherlands'
p65
S'NLD'
p66
sS'Cayman Islands'
p67
S'CYM'
p68
sS'Libya'
p69
S'LBY'
p70
sS'Finland'
p71
S'FIN'
p72
sS'Central African Republic'
p73
S'CAF'
p74
sS'Liechtenstein'
p75
S'LIE'
p76
sS'United States'
p77
S'USA'
p78
sS'Portugal'
p79
S'PRT'
p80
sS'Fiji'
p81
S'FJI'
p82
sS'Malaysia'
p83
S'MYS'
p84
sS'Saint Martin'
p85
S'MAF'
p86
sS'Guinea'
p87
S'GIN'
p88
sS'Panama'
p89
S'PAN'
p90
sS'Congo, Democratic Republic of the'
p91
S'COD'
p92
sS'Costa Rica'
p93
S'CRI'
p94
sS'Luxembourg'
p95
S'LUX'
p96
sS'Andorra'
p97
S'AND'
p98
sS'Gibraltar'
p99
S'GIB'
p100
sS'Ireland'
p101
S'IRL'
p102
sS'Italy'
p103
S'ITA'
p104
sS'Nigeria'
p105
S'NGA'
p106
sS'Ecuador'
p107
S'ECU'
p108
sS'Australia'
p109
S'AUS'
p110
sS'El Salvador'
p111
S'SLV'
p112
sS'Tuvalu'
p113
S'TUV'
p114
sS'Thailand'
p115
S'THA'
p116
sS'Belize'
p117
S'BLZ'
p118
sS'Hong Kong'
p119
S'HKG'
p120
sS'Sierra Leone'
p121
S'SLE'
p122
sS'Georgia'
p123
S'GEO'
p124
sS'Denmark'
p125
S'DNK'
p126
sS'Philippines'
p127
S'PHL'
p128
sS'Moldova'
p129
S'MDA'
p130
sS'Morocco'
p131
S'MAR'
p132
sS'Guernsey'
p133
S'GGY'
p134
sS'Korea, North'
p135
S'KOR'
p136
sS'Estonia'
p137
S'EST'
p138
sS'Kosovo'
p139
S'KSV'
p140
sS'Lebanon'
p141
S'LBN'
p142
sS'Korea, South'
p143
S'PRK'
p144
sS'Uzbekistan'
p145
S'UZB'
p146
sS'Republic of Korea'
p147
g144
sS'Colombia'
p148
S'COL'
p149
sS'Taiwan'
p150
S'TWN'
p151
sS'Cyprus'
p152
S'CYP'
p153
sS'Barbados'
p154
S'BRB'
p155
sS'Falkland Islands (Islas Malvinas)'
p156
S'FLK'
p157
sS'Madagascar'
p158
S'MDG'
p159
sS'Palau'
p160
S'PLW'
p161
sS'Sudan'
p162
S'SDN'
p163
sS'Nepal'
p164
S'NPL'
p165
sS'Netherlands'
p166
g66
sS'Suriname'
p167
S'SUR'
p168
sS'Anguilla'
p169
S'AIA'
p170
sS'Israel'
p171
S'ISR'
p172
sS'Senegal'
p173
S'SEN'
p174
sS'Papua New Guinea'
p175
S'PNG'
p176
sS'Zimbabwe'
p177
S'ZWE'
p178
sS'Jordan'
p179
S'JOR'
p180
sS'Mauritania'
p181
S'MRT'
p182
sS'Trinidad and Tobago'
p183
S'TTO'
p184
sS'Latvia'
p185
S'LVA'
p186
sS'Hungary'
p187
S'HUN'
p188
sS'Syria'
p189
S'SYR'
p190
sS'Sint Maarten'
p191
S'SXM'
p192
sS'Mexico'
p193
S'MEX'
p194
sS'Serbia'
p195
S'SRB'
p196
sS'United Kingdom'
p197
S'GBR'
p198
sS"People's Republic of China"
p199
S'CHN'
p200
sS'Greece'
p201
S'GRC'
p202
sS'Paraguay'
p203
S'PRY'
p204
sS'Botswana'
p205
S'BWA'
p206
sS'Sao Tome and Principe'
p207
S'STP'
p208
sS'Lithuania'
p209
S'LTU'
p210
sS'Cambodia'
p211
S'KHM'
p212
sS'Aruba'
p213
S'ABW'
p214
sS'Argentina'
p215
S'ARG'
p216
sS'Bolivia'
p217
S'BOL'
p218
sS'Bahamas, The'
p219
S'BHM'
p220
sS'Ghana'
p221
S'GHA'
p222
sS'Saudi Arabia'
p223
S'SAU'
p224
sS'American Samoa'
p225
S'ASM'
p226
sS'Slovenia'
p227
S'SVN'
p228
sS'Guatemala'
p229
S'GTM'
p230
sS'Kuwait'
p231
S'KWT'
p232
sS'Spain'
p233
S'ESP'
p234
sS'Jamaica'
p235
S'JAM'
p236
sS'Oman'
p237
S'OMN'
p238
sS'Cabo Verde'
p239
S'CPV'
p240
sS'Albania'
p241
S'ALB'
p242
sS'Gabon'
p243
S'GAB'
p244
sS'Niue'
p245
S'NIU'
p246
sS'West Bank'
p247
S'WBG'
p248
sS'New Zealand'
p249
S'NZL'
p250
sS'Yemen'
p251
S'YEM'
p252
sS'Pakistan'
p253
S'PAK'
p254
sS'Greenland'
p255
S'GRL'
p256
sS'Samoa'
p257
S'WSM'
p258
sS'Macau'
p259
S'MAC'
p260
sS'United Arab Emirates'
p261
S'ARE'
p262
sS'Guam'
p263
S'GUM'
p264
sS'India'
p265
S'IND'
p266
sS'Azerbaijan'
p267
S'AZE'
p268
sS'Lesotho'
p269
S'LSO'
p270
sS'Saint Vincent and the Grenadines'
p271
S'VCT'
p272
sS'Kenya'
p273
S'KEN'
p274
sS'Czech Republic'
p275
S'CZE'
p276
sS'Eritrea'
p277
S'ERI'
p278
sS'Solomon Islands'
p279
S'SLB'
p280
sS'Saint Lucia'
p281
S'LCA'
p282
sS'San Marino'
p283
S'SMR'
p284
sS'French Polynesia'
p285
S'PYF'
p286
sS'Rwanda'
p287
S'RWA'
p288
sS'Somalia'
p289
S'SOM'
p290
sS'Peru'
p291
S'PER'
p292
sS'Laos'
p293
S'LAO'
p294
sS'Cook Islands'
p295
S'COK'
p296
sS'Benin'
p297
S'BEN'
p298
sS'Cuba'
p299
S'CUB'
p300
sS'Saint Kitts and Nevis'
p301
S'KNA'
p302
sS'Togo'
p303
S'TGO'
p304
sS'China'
p305
g200
sS'Armenia'
p306
S'ARM'
p307
sS'Ukraine'
p308
S'UKR'
p309
sS'Tonga'
p310
S'TON'
p311
sS'Indonesia'
p312
S'IDN'
p313
sS'Mauritius'
p314
S'MUS'
p315
sS'Sweden'
p316
S'SWE'
p317
sS'Vietnam'
p318
S'VNM'
p319
sS'British Virgin Islands'
p320
g56
sS'Mali'
p321
S'MLI'
p322
sS'Russia'
p323
S'RUS'
p324
sS'Bulgaria'
p325
S'BGR'
p326
sS'Romania'
p327
S'ROU'
p328
sS'Angola'
p329
S'AGO'
p330
sS'Chad'
p331
S'TCD'
p332
sS'South Africa'
p333
S'ZAF'
p334
sS'Qatar'
p335
S'QAT'
p336
sS'Austria'
p337
S'AUT'
p338
sS'Mozambique'
p339
S'MOZ'
p340
sS'Uganda'
p341
S'UGA'
p342
sS'Japan'
p343
S'JPN'
p344
sS'Niger'
p345
S'NER'
p346
sS'Brazil'
p347
S'BRA'
p348
sS'Faroe Islands'
p349
S'FRO'
p350
sS'Bangladesh'
p351
S'BGD'
p352
sS'Brunei'
p353
S'BRN'
p354
sS'Belarus'
p355
S'BLR'
p356
sS'Iran'
p357
S'IRN'
p358
sS'Algeria'
p359
S'DZA'
p360
sS'Marshall Islands'
p361
S'MHL'
p362
sS'Chile'
p363
S'CHL'
p364
sS'Puerto Rico'
p365
S'PRI'
p366
sS'Belgium'
p367
S'BEL'
p368
sS'Kiribati'
p369
S'KIR'
p370
sS'Haiti'
p371
S'HTI'
p372
sS'Iraq'
p373
S'IRQ'
p374
sS'Croatia'
p375
g6
sS'Mongolia'
p376
S'MNG'
p377
sS'Guinea-Bissau'
p378
S'GNB'
p379
sS'Switzerland'
p380
S'CHE'
p381
sS'Grenada'
p382
S'GRD'
p383
sS'Isle of Man'
p384
S'IMN'
p385
sS'Uruguay'
p386
S'URY'
p387
sS'Republic of the Philippines'
p388
S'PHR'
p389
sS'Equatorial Guinea'
p390
S'GNQ'
p391
sS'Tunisia'
p392
S'TUN'
p393
sS'Djibouti'
p394
S'DJI'
p395
sS'Bermuda'
p396
S'BMU'
p397
sS'Antigua and Barbuda'
p398
S'ATG'
p399
sS'Burundi'
p400
S'BDI'
p401
sS'Nicaragua'
p402
S'NIC'
p403
sS'Curacao'
p404
S'CUW'
p405
sS'Bhutan'
p406
S'BTN'
p407
sS'Malta'
p408
S'MLT'
p409
sS'Venezuela'
p410
S'VEN'
p411
sS'Iceland'
p412
S'ISL'
p413
sS'Zambia'
p414
S'ZMB'
p415
sS'Germany'
p416
S'DEU'
p417
sS'Kazakhstan'
p418
S'KAZ'
p419
sS'Poland'
p420
S'POL'
p421
sS'Kyrgyzstan'
p422
S'KGZ'
p423
sS'New Caledonia'
p424
S'NCL'
p425
sS'Macedonia'
p426
S'MKD'
p427
sS'South Sudan'
p428
S'SSD'
p429
sS'Guyana'
p430
S'GUY'
p431
sS'Burma'
p432
S'MMR'
p433
sS'Honduras'
p434
S'HND'
p435
sS'Myanmar'
p436
g433
sS'Egypt'
p437
S'EGY'
p438
sS'Singapore'
p439
S'SGP'
p440
sS'Gambia, The'
p441
S'GMB'
p442
sS'Sri Lanka'
p443
S'LKA'
p444
sS'Namibia'
p445
S'NAM'
p446
sS'Comoros'
p447
S'COM'
p448
s.